target datalayout = "e-m:e-p270:32:32-p271:32:32-p272:64:64-i64:64-i128:128-f80:128-n8:16:32:64-S128"
target triple = "x86_64-pc-linux-gnu"

@hf_nas_5gs_spare_bits = internal global i32 0, align 4
@hf_nas_5gs_mm_n3gpp_acc_path_switch_ind_naps = internal global i32 0, align 4

; Function Attrs: null_pointer_is_valid sspstrong uwtable
define internal zeroext i16 @de_nas_5gs_mm_n3gpp_acc_path_switch_ind(ptr noundef %0, ptr noundef %1, ptr noundef %2, i32 noundef %3, i32 noundef %4, ptr noundef %5, i32 noundef %6) #0 {
  %8 = alloca ptr, align 8
  %9 = alloca ptr, align 8
  %10 = alloca ptr, align 8
  %11 = alloca i32, align 4
  %12 = alloca i32, align 4
  %13 = alloca ptr, align 8
  %14 = alloca i32, align 4
  store ptr %0, ptr %8, align 8
  store ptr %1, ptr %9, align 8
  store ptr %2, ptr %10, align 8
  store i32 %3, ptr %11, align 4
  store i32 %4, ptr %12, align 4
  store ptr %5, ptr %13, align 8
  store i32 %6, ptr %14, align 4
  %15 = load ptr, ptr %9, align 8
  %16 = load i32, ptr @hf_nas_5gs_spare_bits, align 4
  %17 = load ptr, ptr %8, align 8
  %18 = load i32, ptr %11, align 4
  %19 = shl i32 %18, 3
  %20 = call ptr @proto_tree_add_bits_item(ptr noundef %15, i32 noundef %16, ptr noundef %17, i32 noundef %19, i32 noundef 7, i32 noundef 0)
  %21 = load ptr, ptr %9, align 8
  %22 = load i32, ptr @hf_nas_5gs_mm_n3gpp_acc_path_switch_ind_naps, align 4
  %23 = load ptr, ptr %8, align 8
  %24 = load i32, ptr %11, align 4
  %25 = call ptr @proto_tree_add_item(ptr noundef %21, i32 noundef %22, ptr noundef %23, i32 noundef %24, i32 noundef 1, i32 noundef 0)
  %26 = load i32, ptr %12, align 4
  %27 = trunc i32 %26 to i16
  ret i16 %27
}