; Function Attrs: null_pointer_is_valid sspstrong uwtable
define internal noundef zeroext i16 @de_nas_5gs_mm_n3gpp_acc_path_switch_ind(ptr noundef %0, ptr noundef %1, ptr readnone captures(none) %2, i32 noundef %3, i32 noundef %4, ptr readnone captures(none) %5, i32 %6) #0 {
  %8 = load i32, ptr @hf_nas_5gs_spare_bits, align 4
  %9 = shl i32 %3, 3
  %10 = tail call ptr @proto_tree_add_bits_item(ptr noundef %1, i32 noundef %8, ptr noundef %0, i32 noundef %9, i32 noundef 7, i32 noundef 0)
  %11 = load i32, ptr @hf_nas_5gs_mm_n3gpp_acc_path_switch_ind_naps, align 4
  %12 = tail call ptr @proto_tree_add_item(ptr noundef %1, i32 noundef %11, ptr noundef %0, i32 noundef %3, i32 noundef 1, i32 noundef 0)
  %13 = trunc i32 %4 to i16
  ret i16 %13
}